; ModuleID = 'source-C-CXX/52/374.c'
source_filename = "source-C-CXX/52/374.c"
target datalayout = "e-m:e-p270:32:32-p271:32:32-p272:64:64-i64:64-f80:128-n8:16:32:64-S128"
target triple = "x86_64-pc-linux-gnu"

@.str = private unnamed_addr constant [3 x i8] c"%d\00", align 1

; Function Attrs: nofree nounwind sspstrong uwtable
define dso_local void @main() local_unnamed_addr #0 {
  %1 = alloca i32, align 4
  %2 = alloca [301 x i32], align 16
  %3 = bitcast i32* %1 to i8*
  call void @llvm.lifetime.start.p0i8(i64 4, i8* nonnull %3) #4
  %4 = bitcast [301 x i32]* %2 to i8*
  call void @llvm.lifetime.start.p0i8(i64 1204, i8* nonnull %4) #4
  %5 = call i32 (i8*, ...) @__isoc99_scanf(i8* getelementptr inbounds ([3 x i8], [3 x i8]* @.str, i64 0, i64 0), i32* nonnull %1)
  %6 = load i32, i32* %1, align 4, !tbaa !5
  %7 = icmp slt i32 %6, 1
  br i1 %7, label %50, label %10

8:                                                ; preds = %10
  %9 = icmp slt i32 %15, 1
  br i1 %9, label %50, label %18

10:                                               ; preds = %0, %10
  %11 = phi i64 [ %14, %10 ], [ 1, %0 ]
  %12 = getelementptr inbounds [301 x i32], [301 x i32]* %2, i64 0, i64 %11
  %13 = call i32 (i8*, ...) @__isoc99_scanf(i8* getelementptr inbounds ([3 x i8], [3 x i8]* @.str, i64 0, i64 0), i32* nonnull %12)
  %14 = add nuw nsw i64 %11, 1
  %15 = load i32, i32* %1, align 4, !tbaa !5
  %16 = sext i32 %15 to i64
  %17 = icmp slt i64 %11, %16
  br i1 %17, label %10, label %8, !llvm.loop !9

18:                                               ; preds = %8, %44
  %19 = phi i32 [ %45, %44 ], [ %15, %8 ]
  %20 = phi i64 [ %47, %44 ], [ 1, %8 ]
  %21 = phi i32 [ %46, %44 ], [ 0, %8 ]
  %22 = icmp ugt i64 %20, 1
  br i1 %22, label %23, label %34

23:                                               ; preds = %18
  %24 = getelementptr inbounds [301 x i32], [301 x i32]* %2, i64 0, i64 %20
  %25 = load i32, i32* %24, align 4, !tbaa !5
  br label %28

26:                                               ; preds = %28
  %27 = icmp eq i64 %33, %20
  br i1 %27, label %34, label %28, !llvm.loop !11

28:                                               ; preds = %23, %26
  %29 = phi i64 [ 1, %23 ], [ %33, %26 ]
  %30 = getelementptr inbounds [301 x i32], [301 x i32]* %2, i64 0, i64 %29
  %31 = load i32, i32* %30, align 4, !tbaa !5
  %32 = icmp eq i32 %25, %31
  %33 = add nuw nsw i64 %29, 1
  br i1 %32, label %44, label %26

34:                                               ; preds = %26, %18
  %35 = icmp sgt i32 %21, 0
  br i1 %35, label %36, label %38

36:                                               ; preds = %34
  %37 = call i32 @putchar(i32 44)
  br label %38

38:                                               ; preds = %36, %34
  %39 = getelementptr inbounds [301 x i32], [301 x i32]* %2, i64 0, i64 %20
  %40 = load i32, i32* %39, align 4, !tbaa !5
  %41 = call i32 (i8*, ...) @printf(i8* nonnull dereferenceable(1) getelementptr inbounds ([3 x i8], [3 x i8]* @.str, i64 0, i64 0), i32 %40)
  %42 = add nsw i32 %21, 1
  %43 = load i32, i32* %1, align 4, !tbaa !5
  br label %44

44:                                               ; preds = %28, %38
  %45 = phi i32 [ %43, %38 ], [ %19, %28 ]
  %46 = phi i32 [ %42, %38 ], [ %21, %28 ]
  %47 = add nuw nsw i64 %20, 1
  %48 = sext i32 %45 to i64
  %49 = icmp slt i64 %20, %48
  br i1 %49, label %18, label %50, !llvm.loop !12

50:                                               ; preds = %44, %0, %8
  call void @llvm.lifetime.end.p0i8(i64 1204, i8* nonnull %4) #4
  call void @llvm.lifetime.end.p0i8(i64 4, i8* nonnull %3) #4
  ret void
}

; Function Attrs: argmemonly mustprogress nofree nosync nounwind willreturn
declare void @llvm.lifetime.start.p0i8(i64 immarg, i8* nocapture) #1

; Function Attrs: nofree nounwind
declare noundef i32 @__isoc99_scanf(i8* nocapture noundef readonly, ...) local_unnamed_addr #2

; Function Attrs: nofree nounwind
declare noundef i32 @printf(i8* nocapture noundef readonly, ...) local_unnamed_addr #2

; Function Attrs: argmemonly mustprogress nofree nosync nounwind willreturn
declare void @llvm.lifetime.end.p0i8(i64 immarg, i8* nocapture) #1

; Function Attrs: nofree nounwind
declare noundef i32 @putchar(i32 noundef) local_unnamed_addr #3


!llvm.module.flags = !{!0, !1, !2, !3}
!llvm.ident = !{!4}

!0 = !{i32 1, !"wchar_size", i32 4}
!1 = !{i32 7, !"PIC Level", i32 2}
!2 = !{i32 7, !"PIE Level", i32 2}
!3 = !{i32 7, !"uwtable", i32 1}
!4 = !{!"clang version 13.0.0"}
!5 = !{!6, !6, i64 0}
!6 = !{!"int", !7, i64 0}
!7 = !{!"omnipotent char", !8, i64 0}
!8 = !{!"Simple C/C++ TBAA"}
!9 = distinct !{!9, !10}
!10 = !{!"llvm.loop.mustprogress"}
!11 = distinct !{!11, !10}
!12 = distinct !{!12, !10}
